; Function Attrs: nounwind uwtable
define dso_local range(i32 -30, 1) i32 @archive_write_set_format_cpio_newc(ptr noundef %0) local_unnamed_addr #0 {
  %2 = tail call i32 @__archive_check_magic(ptr noundef %0, i32 noundef -1329217314, i32 noundef 1, ptr noundef nonnull @.str) #11
  %.not = icmp eq i32 %2, -30
  br i1 %.not, label %22, label %3

3:                                                ; preds = %1
  %4 = getelementptr inbounds nuw i8, ptr %0, i64 312
  %5 = load ptr, ptr %4, align 8, !tbaa !4
  %.not23 = icmp eq ptr %5, null
  br i1 %.not23, label %8, label %6

6:                                                ; preds = %3
  %7 = tail call i32 %5(ptr noundef nonnull %0) #11
  br label %8

8:                                                ; preds = %6, %3
  %9 = tail call noalias dereferenceable_or_null(40) ptr @calloc(i64 noundef 1, i64 noundef 40) #12
  %10 = icmp eq ptr %9, null
  br i1 %10, label %11, label %12

11:                                               ; preds = %8
  tail call void (ptr, i32, ptr, ...) @archive_set_error(ptr noundef nonnull %0, i32 noundef 12, ptr noundef nonnull @.str.1) #11
  br label %22

12:                                               ; preds = %8
  %13 = getelementptr inbounds nuw i8, ptr %0, i64 248
  store ptr %9, ptr %13, align 8, !tbaa !17
  %14 = getelementptr inbounds nuw i8, ptr %0, i64 256
  store ptr @.str.2, ptr %14, align 8, !tbaa !18
  %15 = getelementptr inbounds nuw i8, ptr %0, i64 272
  store ptr @archive_write_newc_options, ptr %15, align 8, !tbaa !19
  %16 = getelementptr inbounds nuw i8, ptr %0, i64 288
  store ptr @archive_write_newc_header, ptr %16, align 8, !tbaa !20
  %17 = getelementptr inbounds nuw i8, ptr %0, i64 296
  store ptr @archive_write_newc_data, ptr %17, align 8, !tbaa !21
  %18 = getelementptr inbounds nuw i8, ptr %0, i64 280
  store ptr @archive_write_newc_finish_entry, ptr %18, align 8, !tbaa !22
  %19 = getelementptr inbounds nuw i8, ptr %0, i64 304
  store ptr @archive_write_newc_close, ptr %19, align 8, !tbaa !23
  store ptr @archive_write_newc_free, ptr %4, align 8, !tbaa !4
  %20 = getelementptr inbounds nuw i8, ptr %0, i64 16
  store i32 65540, ptr %20, align 8, !tbaa !24
  %21 = getelementptr inbounds nuw i8, ptr %0, i64 24
  store ptr @.str.3, ptr %21, align 8, !tbaa !25
  br label %22

22:                                               ; preds = %1, %12, %11
  %.1 = phi i32 [ -30, %11 ], [ 0, %12 ], [ -30, %1 ]
  ret i32 %.1
}